Certificate:
    Data:
        Version: 3 (0x2)
        Serial Number: 2 (0x2)
        Signature Algorithm: sha512WithRSAEncryption
        Issuer: C=ca, ST=catalunya, L=barcelona, O=Veritat Absoluta CA, OU=Certificats, CN=Veritat Absoluta/emailAddress=adm@veritat
        Validity
            Not Before: Mar 12 08:19:20 2021 GMT
            Not After : Mar 10 08:19:20 2031 GMT
        Subject: C=ca, ST=catalunya, O=escola del treball, OU=informatica, CN=ldap.edt.org/emailAddress=admin@edt.org
        Subject Public Key Info:
            Public Key Algorithm: rsaEncryption
                RSA Public-Key: (2048 bit)
                Modulus:
                    00:a3:29:16:18:9c:f1:bc:cd:b3:35:1f:8f:34:93:
                    ec:36:3c:28:11:ba:a5:a3:0d:e8:86:07:e5:2d:c3:
                    5c:a9:1b:b3:c0:46:d3:20:6a:d0:de:b8:c7:18:b7:
                    77:3e:17:5a:e1:90:fc:6d:23:72:6c:c8:a4:51:e7:
                    a2:36:e4:a1:03:a3:31:10:f6:63:b9:e4:84:05:9e:
                    83:44:d6:65:39:bf:b3:0e:de:6d:95:64:e6:5e:db:
                    e1:bc:38:aa:bd:52:91:04:04:15:d1:d4:a2:33:d8:
                    90:24:64:38:5f:0d:54:f4:69:29:a8:e6:d6:ab:68:
                    bc:7b:d5:6b:37:23:49:6a:f8:b0:60:e6:52:48:97:
                    b0:49:16:56:5c:74:87:2e:f0:60:d5:5d:06:db:0a:
                    a2:b5:a6:90:a8:e8:81:1f:48:7d:d4:b1:c7:29:1c:
                    93:2a:50:c7:70:34:cc:1d:a7:20:1b:52:1a:bd:53:
                    c6:d2:ff:58:53:a8:8e:a5:41:85:f7:8c:46:59:7d:
                    2c:c9:18:f0:eb:32:e9:48:b4:b1:06:e7:6c:92:8e:
                    61:57:f0:60:15:5d:fe:3b:87:93:96:52:06:46:d2:
                    54:01:0b:df:9b:df:81:3d:cf:37:2e:bd:96:18:c2:
                    63:1f:a8:5e:6a:c3:f7:66:82:f4:fa:5d:c5:89:e2:
                    4c:81
                Exponent: 65537 (0x10001)
        X509v3 extensions:
            X509v3 Subject Key Identifier: 
                EB:10:0A:16:6F:E5:FD:18:A5:A9:99:7D:7E:86:1C:7B:89:14:7E:59
            X509v3 Authority Key Identifier: 
                keyid:6E:F6:31:16:91:A9:00:4E:2B:15:04:15:D6:69:D5:42:DF:23:64:6C

            X509v3 Basic Constraints: critical
                CA:TRUE
    Signature Algorithm: sha512WithRSAEncryption
         41:48:99:1b:e5:22:77:77:9d:cb:bd:ec:90:e9:ea:37:99:a4:
         52:b6:c8:43:b0:dd:9a:6e:80:1a:49:16:2d:a2:cc:3d:cd:59:
         36:d2:21:4b:6a:eb:eb:00:de:9d:48:bc:26:dc:61:49:91:36:
         27:43:11:93:58:bc:c0:d4:5d:42:dd:83:36:13:84:66:b4:6b:
         a4:ad:f8:a6:66:2d:a4:bc:77:89:e1:86:86:f6:28:91:bd:09:
         e4:7c:f5:f6:46:cc:3c:4a:37:3f:e1:da:6c:83:ff:8d:cc:26:
         ae:39:ef:1a:c7:97:d2:3f:be:36:d6:97:6b:62:e9:51:7b:f3:
         de:68:5d:e2:fa:be:2f:a9:b0:46:92:f6:30:e7:0a:ad:09:ad:
         3c:0d:d9:9b:b1:c9:e1:1c:27:a7:96:9b:ac:6a:50:31:7b:5e:
         a6:de:a2:f5:b7:bc:7c:4e:19:c3:fa:a6:b6:1b:42:41:31:6b:
         71:88:93:65:58:88:0f:10:e8:85:57:2a:39:25:2c:d2:0c:a1:
         98:10:8e:4c:9c:cd:f9:10:15:36:50:d7:40:5c:4b:9e:44:21:
         ad:5a:35:55:d1:e0:b6:09:f5:c2:fd:bc:76:1b:4b:7f:1b:98:
         ba:b9:6a:35:68:f2:27:ee:47:ea:a0:d2:24:88:fd:aa:00:59:
         7c:f1:4b:50
-----BEGIN CERTIFICATE-----
MIID+TCCAuGgAwIBAgIBAjANBgkqhkiG9w0BAQ0FADCBoDELMAkGA1UEBhMCY2Ex
EjAQBgNVBAgMCWNhdGFsdW55YTESMBAGA1UEBwwJYmFyY2Vsb25hMRwwGgYDVQQK
DBNWZXJpdGF0IEFic29sdXRhIENBMRQwEgYDVQQLDAtDZXJ0aWZpY2F0czEZMBcG
A1UEAwwQVmVyaXRhdCBBYnNvbHV0YTEaMBgGCSqGSIb3DQEJARYLYWRtQHZlcml0
YXQwHhcNMjEwMzEyMDgxOTIwWhcNMzEwMzEwMDgxOTIwWjCBiTELMAkGA1UEBhMC
Y2ExEjAQBgNVBAgMCWNhdGFsdW55YTEbMBkGA1UECgwSZXNjb2xhIGRlbCB0cmVi
YWxsMRQwEgYDVQQLDAtpbmZvcm1hdGljYTEVMBMGA1UEAwwMbGRhcC5lZHQub3Jn
MRwwGgYJKoZIhvcNAQkBFg1hZG1pbkBlZHQub3JnMIIBIjANBgkqhkiG9w0BAQEF
AAOCAQ8AMIIBCgKCAQEAoykWGJzxvM2zNR+PNJPsNjwoEbqlow3ohgflLcNcqRuz
wEbTIGrQ3rjHGLd3Phda4ZD8bSNybMikUeeiNuShA6MxEPZjueSEBZ6DRNZlOb+z
Dt5tlWTmXtvhvDiqvVKRBAQV0dSiM9iQJGQ4Xw1U9GkpqObWq2i8e9VrNyNJaviw
YOZSSJewSRZWXHSHLvBg1V0G2wqitaaQqOiBH0h91LHHKRyTKlDHcDTMHacgG1Ia
vVPG0v9YU6iOpUGF94xGWX0syRjw6zLpSLSxBudsko5hV/BgFV3+O4eTllIGRtJU
AQvfm9+BPc83Lr2WGMJjH6heasP3ZoL0+l3FieJMgQIDAQABo1MwUTAdBgNVHQ4E
FgQU6xAKFm/l/RilqZl9foYce4kUflkwHwYDVR0jBBgwFoAUbvYxFpGpAE4rFQQV
1mnVQt8jZGwwDwYDVR0TAQH/BAUwAwEB/zANBgkqhkiG9w0BAQ0FAAOCAQEAQUiZ
G+Uid3edy73skOnqN5mkUrbIQ7Ddmm6AGkkWLaLMPc1ZNtIhS2rr6wDenUi8Jtxh
SZE2J0MRk1i8wNRdQt2DNhOEZrRrpK34pmYtpLx3ieGGhvYokb0J5Hz19kbMPEo3
P+HabIP/jcwmrjnvGseX0j++NtaXa2LpUXvz3mhd4vq+L6mwRpL2MOcKrQmtPA3Z
m7HJ4Rwnp5abrGpQMXtept6i9be8fE4Zw/qmthtCQTFrcYiTZViIDxDohVcqOSUs
0gyhmBCOTJzN+RAVNlDXQFxLnkQhrVo1VdHgtgn1wv28dhtLfxuYurlqNWjyJ+5H
6qDSJIj9qgBZfPFLUA==
-----END CERTIFICATE-----
