Certificate:
    Data:
        Version: 3 (0x2)
        Serial Number: 3 (0x3)
        Signature Algorithm: sha512WithRSAEncryption
        Issuer: C=ca, ST=catalunya, L=barcelona, O=Veritat Absoluta CA, OU=Certificats, CN=Veritat Absoluta/emailAddress=adm@veritat
        Validity
            Not Before: Mar 12 08:23:42 2021 GMT
            Not After : Mar 10 08:23:42 2031 GMT
        Subject: C=ca, ST=catalunya, O=escola del treball, OU=informatica, CN=ldap.edt.org/emailAddress=admin@edt.org
        Subject Public Key Info:
            Public Key Algorithm: rsaEncryption
                RSA Public-Key: (2048 bit)
                Modulus:
                    00:a3:29:16:18:9c:f1:bc:cd:b3:35:1f:8f:34:93:
                    ec:36:3c:28:11:ba:a5:a3:0d:e8:86:07:e5:2d:c3:
                    5c:a9:1b:b3:c0:46:d3:20:6a:d0:de:b8:c7:18:b7:
                    77:3e:17:5a:e1:90:fc:6d:23:72:6c:c8:a4:51:e7:
                    a2:36:e4:a1:03:a3:31:10:f6:63:b9:e4:84:05:9e:
                    83:44:d6:65:39:bf:b3:0e:de:6d:95:64:e6:5e:db:
                    e1:bc:38:aa:bd:52:91:04:04:15:d1:d4:a2:33:d8:
                    90:24:64:38:5f:0d:54:f4:69:29:a8:e6:d6:ab:68:
                    bc:7b:d5:6b:37:23:49:6a:f8:b0:60:e6:52:48:97:
                    b0:49:16:56:5c:74:87:2e:f0:60:d5:5d:06:db:0a:
                    a2:b5:a6:90:a8:e8:81:1f:48:7d:d4:b1:c7:29:1c:
                    93:2a:50:c7:70:34:cc:1d:a7:20:1b:52:1a:bd:53:
                    c6:d2:ff:58:53:a8:8e:a5:41:85:f7:8c:46:59:7d:
                    2c:c9:18:f0:eb:32:e9:48:b4:b1:06:e7:6c:92:8e:
                    61:57:f0:60:15:5d:fe:3b:87:93:96:52:06:46:d2:
                    54:01:0b:df:9b:df:81:3d:cf:37:2e:bd:96:18:c2:
                    63:1f:a8:5e:6a:c3:f7:66:82:f4:fa:5d:c5:89:e2:
                    4c:81
                Exponent: 65537 (0x10001)
        X509v3 extensions:
            X509v3 Basic Constraints: 
                CA:FALSE
            X509v3 Subject Key Identifier: 
                EB:10:0A:16:6F:E5:FD:18:A5:A9:99:7D:7E:86:1C:7B:89:14:7E:59
            X509v3 Authority Key Identifier: 
                keyid:6E:F6:31:16:91:A9:00:4E:2B:15:04:15:D6:69:D5:42:DF:23:64:6C
                DirName:/C=ca/ST=catalunya/L=barcelona/O=Veritat Absoluta CA/OU=Certificats/CN=Veritat Absoluta/emailAddress=adm@veritat
                serial:1E:1E:BC:79:73:C8:B4:67:75:5A:E8:87:3A:D4:24:9F:65:E5:D0:A8

    Signature Algorithm: sha512WithRSAEncryption
         83:53:16:23:95:5d:49:42:da:18:78:6e:88:de:f6:fd:e7:c4:
         6a:3c:c2:27:5a:65:8b:20:2f:9c:61:58:97:ec:88:32:1c:bb:
         3a:63:a1:07:e8:60:9e:42:98:a0:1f:ad:d1:fe:70:85:8e:02:
         e0:e2:27:d1:26:93:11:63:71:56:d4:20:77:52:37:00:90:59:
         c0:23:9e:41:52:a1:07:b0:1d:28:1a:e8:65:8d:d6:b3:30:06:
         5f:55:94:6d:b9:7b:e5:02:c8:92:01:a0:b9:cc:ee:01:a8:8f:
         c3:ea:cb:1b:3c:69:2b:66:97:90:ae:b0:d6:0b:27:a6:5a:a1:
         79:a5:d5:78:39:14:ff:19:d2:c1:dc:66:20:cc:88:21:1e:69:
         8a:3f:4e:e8:4a:39:af:7d:3c:79:bf:d2:50:27:16:d6:44:ea:
         ec:d6:3a:54:49:b6:3b:37:6e:fb:a8:13:28:0d:e0:38:b6:b9:
         cb:dd:d5:57:1e:de:4b:7a:d8:2a:b9:73:56:5c:86:1b:c2:9e:
         cd:98:13:12:65:d1:03:4a:b9:2f:e0:ee:7a:0b:4a:6c:47:d8:
         68:ff:94:cf:03:0b:5e:d5:82:c0:79:14:93:fa:e0:be:05:e0:
         c2:4e:2a:16:ef:29:50:8c:42:d9:5a:78:7b:09:c2:96:b3:20:
         07:a6:10:60
-----BEGIN CERTIFICATE-----
MIIEuTCCA6GgAwIBAgIBAzANBgkqhkiG9w0BAQ0FADCBoDELMAkGA1UEBhMCY2Ex
EjAQBgNVBAgMCWNhdGFsdW55YTESMBAGA1UEBwwJYmFyY2Vsb25hMRwwGgYDVQQK
DBNWZXJpdGF0IEFic29sdXRhIENBMRQwEgYDVQQLDAtDZXJ0aWZpY2F0czEZMBcG
A1UEAwwQVmVyaXRhdCBBYnNvbHV0YTEaMBgGCSqGSIb3DQEJARYLYWRtQHZlcml0
YXQwHhcNMjEwMzEyMDgyMzQyWhcNMzEwMzEwMDgyMzQyWjCBiTELMAkGA1UEBhMC
Y2ExEjAQBgNVBAgMCWNhdGFsdW55YTEbMBkGA1UECgwSZXNjb2xhIGRlbCB0cmVi
YWxsMRQwEgYDVQQLDAtpbmZvcm1hdGljYTEVMBMGA1UEAwwMbGRhcC5lZHQub3Jn
MRwwGgYJKoZIhvcNAQkBFg1hZG1pbkBlZHQub3JnMIIBIjANBgkqhkiG9w0BAQEF
AAOCAQ8AMIIBCgKCAQEAoykWGJzxvM2zNR+PNJPsNjwoEbqlow3ohgflLcNcqRuz
wEbTIGrQ3rjHGLd3Phda4ZD8bSNybMikUeeiNuShA6MxEPZjueSEBZ6DRNZlOb+z
Dt5tlWTmXtvhvDiqvVKRBAQV0dSiM9iQJGQ4Xw1U9GkpqObWq2i8e9VrNyNJaviw
YOZSSJewSRZWXHSHLvBg1V0G2wqitaaQqOiBH0h91LHHKRyTKlDHcDTMHacgG1Ia
vVPG0v9YU6iOpUGF94xGWX0syRjw6zLpSLSxBudsko5hV/BgFV3+O4eTllIGRtJU
AQvfm9+BPc83Lr2WGMJjH6heasP3ZoL0+l3FieJMgQIDAQABo4IBETCCAQ0wCQYD
VR0TBAIwADAdBgNVHQ4EFgQU6xAKFm/l/RilqZl9foYce4kUflkwgeAGA1UdIwSB
2DCB1YAUbvYxFpGpAE4rFQQV1mnVQt8jZGyhgaakgaMwgaAxCzAJBgNVBAYTAmNh
MRIwEAYDVQQIDAljYXRhbHVueWExEjAQBgNVBAcMCWJhcmNlbG9uYTEcMBoGA1UE
CgwTVmVyaXRhdCBBYnNvbHV0YSBDQTEUMBIGA1UECwwLQ2VydGlmaWNhdHMxGTAX
BgNVBAMMEFZlcml0YXQgQWJzb2x1dGExGjAYBgkqhkiG9w0BCQEWC2FkbUB2ZXJp
dGF0ghQeHrx5c8i0Z3Va6Ic61CSfZeXQqDANBgkqhkiG9w0BAQ0FAAOCAQEAg1MW
I5VdSULaGHhuiN72/efEajzCJ1pliyAvnGFYl+yIMhy7OmOhB+hgnkKYoB+t0f5w
hY4C4OIn0SaTEWNxVtQgd1I3AJBZwCOeQVKhB7AdKBroZY3WszAGX1WUbbl75QLI
kgGguczuAaiPw+rLGzxpK2aXkK6w1gsnplqheaXVeDkU/xnSwdxmIMyIIR5pij9O
6Eo5r308eb/SUCcW1kTq7NY6VEm2Ozdu+6gTKA3gOLa5y93VVx7eS3rYKrlzVlyG
G8KezZgTEmXRA0q5L+DuegtKbEfYaP+UzwMLXtWCwHkUk/rgvgXgwk4qFu8pUIxC
2Vp4ewnClrMgB6YQYA==
-----END CERTIFICATE-----
