Certificate:
    Data:
        Version: 3 (0x2)
        Serial Number: 1 (0x1)
        Signature Algorithm: sha512WithRSAEncryption
        Issuer: C=ca, ST=catalunya, L=barcelona, O=Veritat Absoluta CA, OU=Certificats, CN=Veritat Absoluta/emailAddress=adm@veritat
        Validity
            Not Before: Mar 12 07:57:47 2021 GMT
            Not After : Mar 10 07:57:47 2031 GMT
        Subject: C=es, ST=es, L=madrid, O=pp, OU=barcenas, CN=tres per cent
        Subject Public Key Info:
            Public Key Algorithm: rsaEncryption
                RSA Public-Key: (2048 bit)
                Modulus:
                    00:a3:29:16:18:9c:f1:bc:cd:b3:35:1f:8f:34:93:
                    ec:36:3c:28:11:ba:a5:a3:0d:e8:86:07:e5:2d:c3:
                    5c:a9:1b:b3:c0:46:d3:20:6a:d0:de:b8:c7:18:b7:
                    77:3e:17:5a:e1:90:fc:6d:23:72:6c:c8:a4:51:e7:
                    a2:36:e4:a1:03:a3:31:10:f6:63:b9:e4:84:05:9e:
                    83:44:d6:65:39:bf:b3:0e:de:6d:95:64:e6:5e:db:
                    e1:bc:38:aa:bd:52:91:04:04:15:d1:d4:a2:33:d8:
                    90:24:64:38:5f:0d:54:f4:69:29:a8:e6:d6:ab:68:
                    bc:7b:d5:6b:37:23:49:6a:f8:b0:60:e6:52:48:97:
                    b0:49:16:56:5c:74:87:2e:f0:60:d5:5d:06:db:0a:
                    a2:b5:a6:90:a8:e8:81:1f:48:7d:d4:b1:c7:29:1c:
                    93:2a:50:c7:70:34:cc:1d:a7:20:1b:52:1a:bd:53:
                    c6:d2:ff:58:53:a8:8e:a5:41:85:f7:8c:46:59:7d:
                    2c:c9:18:f0:eb:32:e9:48:b4:b1:06:e7:6c:92:8e:
                    61:57:f0:60:15:5d:fe:3b:87:93:96:52:06:46:d2:
                    54:01:0b:df:9b:df:81:3d:cf:37:2e:bd:96:18:c2:
                    63:1f:a8:5e:6a:c3:f7:66:82:f4:fa:5d:c5:89:e2:
                    4c:81
                Exponent: 65537 (0x10001)
        X509v3 extensions:
            X509v3 Basic Constraints: 
                CA:FALSE
            Netscape Comment: 
                OpenSSL Generated Certificate
            X509v3 Subject Key Identifier: 
                EB:10:0A:16:6F:E5:FD:18:A5:A9:99:7D:7E:86:1C:7B:89:14:7E:59
            X509v3 Authority Key Identifier: 
                keyid:6E:F6:31:16:91:A9:00:4E:2B:15:04:15:D6:69:D5:42:DF:23:64:6C

    Signature Algorithm: sha512WithRSAEncryption
         a0:03:84:57:69:7a:7c:13:4a:66:e1:2b:34:47:16:03:d3:42:
         bf:f6:d4:c2:0a:6d:8e:fb:33:aa:91:bc:bb:31:6a:53:e7:4f:
         89:e5:eb:a1:31:a8:fc:98:ec:20:ea:62:b8:74:4f:87:cc:cd:
         54:c1:89:de:c9:9d:9e:df:f5:09:a4:2f:8e:90:9e:2b:56:72:
         a6:6c:80:3c:6e:91:d8:59:48:9e:10:56:25:1f:1d:25:62:08:
         cd:5d:9b:29:20:62:dc:1d:41:30:d5:3d:37:f7:68:88:ab:40:
         7f:2e:22:03:64:93:9a:bf:28:c4:87:ff:e6:f7:15:59:21:b4:
         b5:82:7a:bc:e3:76:c7:f9:a3:c3:4f:7d:87:ff:af:9d:46:14:
         41:d7:b1:c0:9a:66:b3:fa:66:fc:e5:75:d1:a8:f3:68:f5:57:
         d8:66:27:6f:48:75:c8:1b:1f:27:7c:0a:55:bc:13:98:e6:fa:
         4f:f3:d1:72:ad:7c:42:5f:95:f5:fe:14:3f:6c:0d:17:33:09:
         aa:2d:c6:c6:81:bf:f0:51:0f:80:82:97:fc:55:dc:17:39:0e:
         27:9b:2f:19:48:a2:d3:1e:5c:f5:ef:67:67:30:59:1e:f1:5e:
         b0:4a:40:a6:51:58:08:a5:9c:b6:4c:e2:ca:6c:21:6d:62:7e:
         b2:c3:a1:17
-----BEGIN CERTIFICATE-----
MIID+jCCAuKgAwIBAgIBATANBgkqhkiG9w0BAQ0FADCBoDELMAkGA1UEBhMCY2Ex
EjAQBgNVBAgMCWNhdGFsdW55YTESMBAGA1UEBwwJYmFyY2Vsb25hMRwwGgYDVQQK
DBNWZXJpdGF0IEFic29sdXRhIENBMRQwEgYDVQQLDAtDZXJ0aWZpY2F0czEZMBcG
A1UEAwwQVmVyaXRhdCBBYnNvbHV0YTEaMBgGCSqGSIb3DQEJARYLYWRtQHZlcml0
YXQwHhcNMjEwMzEyMDc1NzQ3WhcNMzEwMzEwMDc1NzQ3WjBjMQswCQYDVQQGEwJl
czELMAkGA1UECAwCZXMxDzANBgNVBAcMBm1hZHJpZDELMAkGA1UECgwCcHAxETAP
BgNVBAsMCGJhcmNlbmFzMRYwFAYDVQQDDA10cmVzIHBlciBjZW50MIIBIjANBgkq
hkiG9w0BAQEFAAOCAQ8AMIIBCgKCAQEAoykWGJzxvM2zNR+PNJPsNjwoEbqlow3o
hgflLcNcqRuzwEbTIGrQ3rjHGLd3Phda4ZD8bSNybMikUeeiNuShA6MxEPZjueSE
BZ6DRNZlOb+zDt5tlWTmXtvhvDiqvVKRBAQV0dSiM9iQJGQ4Xw1U9GkpqObWq2i8
e9VrNyNJaviwYOZSSJewSRZWXHSHLvBg1V0G2wqitaaQqOiBH0h91LHHKRyTKlDH
cDTMHacgG1IavVPG0v9YU6iOpUGF94xGWX0syRjw6zLpSLSxBudsko5hV/BgFV3+
O4eTllIGRtJUAQvfm9+BPc83Lr2WGMJjH6heasP3ZoL0+l3FieJMgQIDAQABo3sw
eTAJBgNVHRMEAjAAMCwGCWCGSAGG+EIBDQQfFh1PcGVuU1NMIEdlbmVyYXRlZCBD
ZXJ0aWZpY2F0ZTAdBgNVHQ4EFgQU6xAKFm/l/RilqZl9foYce4kUflkwHwYDVR0j
BBgwFoAUbvYxFpGpAE4rFQQV1mnVQt8jZGwwDQYJKoZIhvcNAQENBQADggEBAKAD
hFdpenwTSmbhKzRHFgPTQr/21MIKbY77M6qRvLsxalPnT4nl66ExqPyY7CDqYrh0
T4fMzVTBid7JnZ7f9QmkL46QnitWcqZsgDxukdhZSJ4QViUfHSViCM1dmykgYtwd
QTDVPTf3aIirQH8uIgNkk5q/KMSH/+b3FVkhtLWCerzjdsf5o8NPfYf/r51GFEHX
scCaZrP6ZvzlddGo82j1V9hmJ29IdcgbHyd8ClW8E5jm+k/z0XKtfEJflfX+FD9s
DRczCaotxsaBv/BRD4CCl/xV3Bc5DiebLxlIotMeXPXvZ2cwWR7xXrBKQKZRWAil
nLZM4spsIW1ifrLDoRc=
-----END CERTIFICATE-----
